
Dump of file C:\Windows\System32\DriverStore\FileRepository\iigd_dch.inf_amd64_518f2921ba495409\igdgmm64.dll

File Type: DLL

  Section contains the following exports for igdgmm64.dll

    00000000 characteristics
    FFFFFFFF time date stamp
        0.00 version
           1 ordinal base
         287 number of functions
         287 number of names

    ordinal hint RVA      name

          1    0 000011F0 ??0GmmClientContext@GmmLib@@QEAA@AEBV01@@Z
          2    1 0016C790 ??0GmmClientContext@GmmLib@@QEAA@W4GMM_CLIENT_ENUM@@@Z
          3    2 0016C800 ??0GmmClientContext@GmmLib@@QEAA@W4GMM_CLIENT_ENUM@@PEAVContext@1@@Z
          4    3 000012A0 ??0GmmPageTableMgr@GmmLib@@QEAA@AEBV01@@Z
          5    4 00166530 ??0GmmPageTableMgr@GmmLib@@QEAA@PEAU_GMM_DEVICE_CALLBACKS_INT@@IPEAUGMM_TRANSLATIONTABLE_CALLBACKS_REC@@PEAVGmmClientContext@1@@Z
          6    5 00165FD0 ??0GmmPageTableMgr@GmmLib@@QEAA@PEAU_GMM_DEVICE_CALLBACKS_INT@@IPEAVGmmClientContext@1@@Z
          7    6 00165F00 ??0GmmPageTableMgr@GmmLib@@QEAA@XZ
          8    7 00001440 ??0GmmResourceInfoCommon@GmmLib@@QEAA@AEBV01@@Z
          9    8 00001650 ??0GmmResourceInfoCommon@GmmLib@@QEAA@PEAVGmmClientContext@1@@Z
         10    9 000016F0 ??0GmmResourceInfoCommon@GmmLib@@QEAA@XZ
         11    A 00001780 ??0GmmResourceInfoWin@GmmLib@@QEAA@AEBV01@@Z
         12    B 00001820 ??0GmmResourceInfoWin@GmmLib@@QEAA@PEAVGmmClientContext@1@@Z
         13    C 000018F0 ??0GmmResourceInfoWin@GmmLib@@QEAA@XZ
         14    D 0016C870 ??1GmmClientContext@GmmLib@@UEAA@XZ
         15    E 00167A10 ??1GmmPageTableMgr@GmmLib@@UEAA@XZ
         16    F 000019A0 ??1GmmResourceInfoCommon@GmmLib@@UEAA@XZ
         17   10 000019D0 ??1GmmResourceInfoWin@GmmLib@@UEAA@XZ
         18   11 00001A30 ??4GmmClientContext@GmmLib@@QEAAAEAV01@AEBV01@@Z
         19   12 00001AD0 ??4GmmPageTableMgr@GmmLib@@QEAAAEAV01@AEBV01@@Z
         20   13 00001C70 ??4GmmResourceInfoCommon@GmmLib@@QEAAAEAV01@AEBV01@@Z
         21   14 00001E20 ??4GmmResourceInfoWin@GmmLib@@QEAAAEAV01@AEBV01@@Z
         22   15 0017EB88 ??_7GmmClientContext@GmmLib@@6B@
         23   16 0017F708 ??_7GmmPageTableMgr@GmmLib@@6B@
         24   17 0017EDE8 ??_7GmmResourceInfoCommon@GmmLib@@6B@
         25   18 0017F220 ??_7GmmResourceInfoWin@GmmLib@@6B@
         26   19 0014A590 ?Alias32bit@GmmResourceInfoWin@GmmLib@@UEAAETGMM_ESCAPE_HANDLE_REC@@0IIPEAITGMM_ESCAPE_FUNC_TYPE_REC@@@Z
         27   1A 0016F570 ?AllocateHeapVA@GmmClientContext@GmmLib@@UEAA_KPEAUGMM_HEAP_REC@@_K@Z
         28   1B 0014A2C0 ?ApplyExistingSysMem@GmmResourceInfoWin@GmmLib@@UEAAEPEAX_K@Z
         29   1C 00149CF0 ?ApplyExistingSysMemRestrictions@GmmResourceInfoCommon@GmmLib@@AEAA?AW4GMM_STATUS_ENUM@@XZ
         30   1D 0016FDD0 ?AuxTilePoolSize@GmmClientContext@GmmLib@@UEAA_KPEAVGmmResourceInfoWin@2@I@Z
         31   1E 0016C9A0 ?CachePolicyGetMaxL1HdcMocsIndex@GmmClientContext@GmmLib@@UEAAIXZ
         32   1F 0016C980 ?CachePolicyGetMaxMocsIndex@GmmClientContext@GmmLib@@UEAAIXZ
         33   20 0016C9C0 ?CachePolicyGetMaxSpecialMocsIndex@GmmClientContext@GmmLib@@UEAAIXZ
         34   21 0016C890 ?CachePolicyGetMemoryObject@GmmClientContext@GmmLib@@UEAA?ATMEMORY_OBJECT_CONTROL_STATE_REC@@PEAVGmmResourceInfoWin@2@W4GMM_RESOURCE_USAGE_TYPE_ENUM@@@Z
         35   22 0016C8F0 ?CachePolicyGetOriginalMemoryObject@GmmClientContext@GmmLib@@UEAA?ATMEMORY_OBJECT_CONTROL_STATE_REC@@PEAVGmmResourceInfoWin@2@@Z
         36   23 0016C8C0 ?CachePolicyGetPteType@GmmClientContext@GmmLib@@UEAA?ATGMM_PTE_CACHE_CONTROL_BITS_REC@@W4GMM_RESOURCE_USAGE_TYPE_ENUM@@@Z
         37   24 0016C920 ?CachePolicyIsUsagePTECached@GmmClientContext@GmmLib@@UEAAEW4GMM_RESOURCE_USAGE_TYPE_ENUM@@@Z
         38   25 0016EDA0 ?ConfigureDeviceAddressSpace@GmmClientContext@GmmLib@@UEAAETGMM_ESCAPE_HANDLE_REC@@0TGMM_ESCAPE_FUNC_TYPE_REC@@_KEEE22@Z
         39   26 00147EA0 ?CopyClientParams@GmmResourceInfoCommon@GmmLib@@MEAA_NAEAUGMM_RESCREATE_PARAMS_REC@@@Z
         40   27 0014A140 ?CopyClientParams@GmmResourceInfoWin@GmmLib@@EEAA_NAEAUGMM_RESCREATE_PARAMS_REC@@@Z
         41   28 0016CD90 ?CopyResInfoObject@GmmClientContext@GmmLib@@UEAAPEAVGmmResourceInfoWin@2@PEAV32@@Z
         42   29 0016FD20 ?CopyTileMappings@GmmClientContext@GmmLib@@UEAA?AW4GMM_STATUS_ENUM@@TGMM_ESCAPE_HANDLE_REC@@0UGMM_COPY_TILE_MAPPINGS_REC_INT@@EPEAUGMM_UMD_SYNCCONTEXT_REC@@PEAUGMM_TRANSLATIONTABLE_CALLBACKS_REC@@TGMM_ESCAPE_FUNC_TYPE_REC@@PEAU_GMM_DEVICE_CALLBACKS_INT@@IE@Z
         43   2A 00145F60 ?CpuBlt@GmmResourceInfoCommon@GmmLib@@UEAAEPEAUGMM_RES_COPY_BLT_REC@@@Z
         44   2B 00145870 ?Create@GmmResourceInfoCommon@GmmLib@@UEAA?AW4GMM_STATUS_ENUM@@AEAUGMM_RESCREATE_PARAMS_REC@@@Z
         45   2C 001452E0 ?Create@GmmResourceInfoCommon@GmmLib@@UEAA?AW4GMM_STATUS_ENUM@@AEAVContext@2@AEAUGMM_RESCREATE_PARAMS_REC@@@Z
         46   2D 0016D140 ?CreatePageTblMgrObject@GmmClientContext@GmmLib@@UEAAPEAVGmmPageTableMgr@2@PEAUGMM_TRANSLATIONTABLE_CALLBACKS_REC@@I@Z
         47   2E 0016DA10 ?CreatePageTblMgrObject@GmmClientContext@GmmLib@@UEAAPEAVGmmPageTableMgr@2@PEAUGMM_TRANSLATIONTABLE_CALLBACKS_REC@@IPEAU_GmmClientAllocationCallbacks_@@@Z
         48   2F 0016D0B0 ?CreatePageTblMgrObject@GmmClientContext@GmmLib@@UEAAPEAVGmmPageTableMgr@2@PEAU_GMM_DEVICE_CALLBACKS_INT@@PEAUGMM_TRANSLATIONTABLE_CALLBACKS_REC@@I@Z
         49   30 0016D940 ?CreatePageTblMgrObject@GmmClientContext@GmmLib@@UEAAPEAVGmmPageTableMgr@2@PEAU_GMM_DEVICE_CALLBACKS_INT@@PEAUGMM_TRANSLATIONTABLE_CALLBACKS_REC@@IPEAU_GmmClientAllocationCallbacks_@@@Z
         50   31 0016CCB0 ?CreateResInfoObject@GmmClientContext@GmmLib@@UEAAPEAVGmmResourceInfoWin@2@PEAUGMM_RESCREATE_PARAMS_REC@@@Z
         51   32 0016D1B0 ?CreateResInfoObject@GmmClientContext@GmmLib@@UEAAPEAVGmmResourceInfoWin@2@PEAUGMM_RESCREATE_PARAMS_REC@@PEAU_GmmClientAllocationCallbacks_@@@Z
         52   33 0016FB50 ?CreateTiledResource@GmmClientContext@GmmLib@@UEAAETGMM_ESCAPE_HANDLE_REC@@0PEAUGMM_UMD_SYNCCONTEXT_REC@@PEAUGMM_TRANSLATIONTABLE_CALLBACKS_REC@@PEAVGmmResourceInfoWin@2@TGMM_ESCAPE_FUNC_TYPE_REC@@I@Z
         53   34 0016D180 ?DestroyPageTblMgrObject@GmmClientContext@GmmLib@@UEAAXPEAVGmmPageTableMgr@2@@Z
         54   35 0016DA60 ?DestroyPageTblMgrObject@GmmClientContext@GmmLib@@UEAAXPEAVGmmPageTableMgr@2@PEAU_GmmClientAllocationCallbacks_@@@Z
         55   36 0016CF00 ?DestroyResInfoObject@GmmClientContext@GmmLib@@UEAAXPEAVGmmResourceInfoWin@2@@Z
         56   37 0016D2E0 ?DestroyResInfoObject@GmmClientContext@GmmLib@@UEAAXPEAVGmmResourceInfoWin@2@PEAU_GmmClientAllocationCallbacks_@@@Z
         57   38 0016FBA0 ?DestroyTiledResource@GmmClientContext@GmmLib@@UEAAETGMM_ESCAPE_HANDLE_REC@@0PEAUGMM_UMD_SYNCCONTEXT_REC@@PEAUGMM_TRANSLATIONTABLE_CALLBACKS_REC@@PEAVGmmResourceInfoWin@2@TGMM_ESCAPE_FUNC_TYPE_REC@@I@Z
         58   39 0016EF70 ?EnhancedBufferMap@GmmClientContext@GmmLib@@UEAAETGMM_ESCAPE_HANDLE_REC@@0TGMM_ESCAPE_FUNC_TYPE_REC@@IQEAPEAUGMM_ENHANCED_BUFFER_INFO_REC@@@Z
         59   3A 00167810 ?EvictPageTablePool@GmmPageTableMgr@GmmLib@@UEAAXPEAIH@Z
         60   3B 0016ECA0 ?FreeGSCBuffer@GmmClientContext@GmmLib@@UEAA?AW4GMM_STATUS_ENUM@@TGMM_ESCAPE_HANDLE_REC@@0PEAXTGMM_ESCAPE_FUNC_TYPE_REC@@@Z
         61   3C 0016F5E0 ?FreeHeapVA@GmmClientContext@GmmLib@@UEAA?AW4GMM_STATUS_ENUM@@PEAUGMM_HEAP_REC@@_K1@Z
         62   3D 00166AB0 ?FreeTRGpuVirtualAddress@GmmPageTableMgr@GmmLib@@UEAAJPEAUGMM_UMD_SYNCCONTEXT_REC@@PEBTGMM_DDI_FREEGPUVIRTUALADDRSS_INT@@E@Z
         63   3E 000021D0 ?GetArraySize@GmmResourceInfoCommon@GmmLib@@UEAAIXZ
         64   3F 000021E0 ?GetAuxHAlign@GmmResourceInfoCommon@GmmLib@@UEAAIXZ
         65   40 00166660 ?GetAuxL3TableAddr@GmmPageTableMgr@GmmLib@@UEAA_KXZ
         66   41 00002200 ?GetAuxQPitch@GmmResourceInfoCommon@GmmLib@@UEAAIXZ
         67   42 000022B0 ?GetAuxTileModeSurfaceState@GmmResourceInfoCommon@GmmLib@@UEAAIXZ
         68   43 000022C0 ?GetAuxTilePoolArray@GmmResourceInfoWin@GmmLib@@UEAAPEAXXZ
         69   44 000022D0 ?GetAuxTilePoolArraySize@GmmResourceInfoWin@GmmLib@@UEAAIXZ
         70   45 000022E0 ?GetAuxVAlign@GmmResourceInfoCommon@GmmLib@@UEAAIXZ
         71   46 00002300 ?GetBaseAlignment@GmmResourceInfoCommon@GmmLib@@UEAAIXZ
         72   47 00002310 ?GetBaseDepth@GmmResourceInfoCommon@GmmLib@@UEAAIXZ
         73   48 00002320 ?GetBaseHeight@GmmResourceInfoCommon@GmmLib@@UEAAIXZ
         74   49 00002330 ?GetBaseWidth@GmmResourceInfoCommon@GmmLib@@UEAA_KXZ
         75   4A 00002340 ?GetBitsPerPixel@GmmResourceInfoCommon@GmmLib@@UEAAIXZ
         76   4B 0016CA50 ?GetCachePolicyElement@GmmClientContext@GmmLib@@UEAA?AUGMM_CACHE_POLICY_ELEMENT_REC@@W4GMM_RESOURCE_USAGE_TYPE_ENUM@@@Z
         77   4C 0016CA90 ?GetCachePolicyTlbElement@GmmClientContext@GmmLib@@UEAA?AUGMM_CACHE_POLICY_TBL_ELEMENT_REC@@I@Z
         78   4D 0016C9F0 ?GetCachePolicyUsage@GmmClientContext@GmmLib@@UEAAPEAUGMM_CACHE_POLICY_ELEMENT_REC@@XZ
         79   4E 00002350 ?GetCachePolicyUsage@GmmResourceInfoCommon@GmmLib@@UEAA?AW4GMM_RESOURCE_USAGE_TYPE_ENUM@@XZ
         80   4F 0016CA10 ?GetCacheSizes@GmmClientContext@GmmLib@@UEAAXPEAUGMM_CACHE_SIZES_REC@@@Z
         81   50 00002330 ?GetClientContext@GmmPageTableMgr@GmmLib@@UEAAPEAVGmmClientContext@2@XZ
         82   51 00002360 ?GetClientType@GmmClientContext@GmmLib@@UEAA?AW4GMM_CLIENT_ENUM@@XZ
         83   52 00002360 ?GetClientType@GmmResourceInfoCommon@GmmLib@@UEAA?AW4GMM_CLIENT_ENUM@@XZ
         84   53 00002370 ?GetColorSeparationArraySize@GmmResourceInfoCommon@GmmLib@@UEAAIXZ
         85   54 00002380 ?GetColorSeparationPhysicalWidth@GmmResourceInfoCommon@GmmLib@@UEAAIXZ
         86   55 001478D0 ?GetCompressionBlockDepth@GmmResourceInfoCommon@GmmLib@@UEAAIXZ
         87   56 00147890 ?GetCompressionBlockHeight@GmmResourceInfoCommon@GmmLib@@UEAAIXZ
         88   57 00147850 ?GetCompressionBlockWidth@GmmResourceInfoCommon@GmmLib@@UEAAIXZ
         89   58 000023B0 ?GetCpuCacheType@GmmResourceInfoCommon@GmmLib@@UEAA?AW4GMM_CPU_CACHE_TYPE_ENUM@@XZ
         90   59 000023C0 ?GetD3d9Flags@GmmResourceInfoWin@GmmLib@@UEAAAEAU_D3DDDI_RESOURCEFLAGS@@XZ
         91   5A 000023D0 ?GetD3d9Format@GmmResourceInfoWin@GmmLib@@UEAA?AW4_D3DDDIFORMAT@@XZ
         92   5B 0016FA50 ?GetD3dSwizzlePattern@GmmClientContext@GmmLib@@UEAAXPEBU_SWIZZLE_DESCRIPTOR@@EPEAUD3D12DDI_SWIZZLE_PATTERN_DESC_0004@@@Z
         93   5C 0016F990 ?GetD3dSwizzlePattern@GmmClientContext@GmmLib@@UEAAXPEBU_SWIZZLE_DESCRIPTOR@@EPEAUD3D12DDI_SWIZZLE_PATTERN_DESC_0022@@@Z
         94   5D 0016F810 ?GetD3dSwizzlePattern@GmmClientContext@GmmLib@@UEAAXPEBU_SWIZZLE_DESCRIPTOR@@EPEAUD3DWDDM2_0DDI_SWIZZLE_PATTERN_DESC@@@Z
         95   5E 0016F8D0 ?GetD3dSwizzlePattern@GmmClientContext@GmmLib@@UEAAXPEBU_SWIZZLE_DESCRIPTOR@@EPEAUD3DWDDM2_2DDI_SWIZZLE_PATTERN_DESC@@@Z
         96   5F 00148E50 ?GetDisplayCompressionSupport@GmmResourceInfoCommon@GmmLib@@UEAAEXZ
         97   60 00148DD0 ?GetDisplayFastClearSupport@GmmResourceInfoCommon@GmmLib@@UEAAEXZ
         98   61 0016CAF0 ?GetExtendedTextureAlign@GmmClientContext@GmmLib@@UEAAXIAEAU__TEX_ALIGNMENT@@@Z
         99   62 00147D40 ?GetFastClearHeight@GmmResourceInfoCommon@GmmLib@@UEAAII@Z
        100   63 00147C40 ?GetFastClearWidth@GmmResourceInfoCommon@GmmLib@@UEAA_KI@Z
        101   64 000023E0 ?GetFlatPhysCcsSize@GmmResourceInfoCommon@GmmLib@@UEAA_KXZ
        102   65 0016EB90 ?GetGSCBuffer@GmmClientContext@GmmLib@@UEAA?AW4GMM_STATUS_ENUM@@TGMM_ESCAPE_HANDLE_REC@@0PEAPEAXPEAITGMM_ESCAPE_FUNC_TYPE_REC@@@Z
        103   66 00002430 ?GetGfxAddress@GmmResourceInfoCommon@GmmLib@@UEAA_KXZ
        104   67 00002450 ?GetGmmClientContext@GmmResourceInfoCommon@GmmLib@@UEAAPEAVGmmClientContext@2@XZ
        105   68 00002460 ?GetGmmLibContext@GmmResourceInfoCommon@GmmLib@@UEAAPEAVContext@2@XZ
        106   69 00002470 ?GetHAlign@GmmResourceInfoCommon@GmmLib@@UEAAIXZ
        107   6A 000024D0 ?GetHAlignSurfaceState@GmmResourceInfoCommon@GmmLib@@UEAAIXZ
        108   6B 0016F0C0 ?GetHeap32Base@GmmClientContext@GmmLib@@UEAA_KTGMM_ESCAPE_HANDLE_REC@@0PEAITGMM_ESCAPE_FUNC_TYPE_REC@@@Z
        109   6C 0016CC90 ?GetInternalGpuVaRangeLimit@GmmClientContext@GmmLib@@UEAA_KXZ
        110   6D 00002660 ?GetLibContext@GmmClientContext@GmmLib@@UEAAPEAVContext@2@XZ
        111   6E 00002670 ?GetLibContext@GmmPageTableMgr@GmmLib@@AEAAPEAVContext@2@XZ
        112   6F 0016FDF0 ?GetLogicalTileShape@GmmClientContext@GmmLib@@UEAA?AW4GMM_STATUS_ENUM@@IPEAI00@Z
        113   70 0016CC70 ?GetLosslessCompressionType@GmmClientContext@GmmLib@@UEAA?AW4GMM_E2ECOMP_FORMAT_ENUM@@W4GMM_RESOURCE_FORMAT_ENUM@@@Z
        114   71 00147970 ?GetMOCS@GmmResourceInfoCommon@GmmLib@@UEAA?ATMEMORY_OBJECT_CONTROL_STATE_REC@@XZ
        115   72 00146DE0 ?GetMappingSpanDesc@GmmResourceInfoCommon@GmmLib@@UEAAEPEAUGMM_GET_MAPPING_REC@@@Z
        116   73 0016FE70 ?GetMaxGpuVirtualAddressBits@GmmClientContext@GmmLib@@UEAAIPEAVGmmResourceInfoWin@2@@Z
        117   74 00002690 ?GetMaxGpuVirtualAddressBits@GmmResourceInfoCommon@GmmLib@@UEAAIXZ
        118   75 000026C0 ?GetMaxLod@GmmResourceInfoCommon@GmmLib@@UEAAIXZ
        119   76 000026D0 ?GetMaximumRenamingListLength@GmmResourceInfoCommon@GmmLib@@UEAAIXZ
        120   77 0016CC40 ?GetMediaSurfaceStateCompressionFormat@GmmClientContext@GmmLib@@UEAAEW4GMM_RESOURCE_FORMAT_ENUM@@@Z
        121   78 00147BE0 ?GetMipDepth@GmmResourceInfoCommon@GmmLib@@UEAAII@Z
        122   79 00147B80 ?GetMipHeight@GmmResourceInfoCommon@GmmLib@@UEAAII@Z
        123   7A 000026E0 ?GetMipTailStartLodSurfaceState@GmmResourceInfoCommon@GmmLib@@UEAAIXZ
        124   7B 00147B20 ?GetMipWidth@GmmResourceInfoCommon@GmmLib@@UEAA_KI@Z
        125   7C 000026F0 ?GetMmcHint@GmmResourceInfoCommon@GmmLib@@UEAA?AW4GMM_RESOURCE_MMC_HINT_REC@@I@Z
        126   7D 00002700 ?GetMmcMode@GmmResourceInfoCommon@GmmLib@@UEAA?AW4GMM_RESOURCE_MMC_INFO_REC@@I@Z
        127   7E 00002720 ?GetMultiTileArch@GmmResourceInfoCommon@GmmLib@@UEAAAEBUGMM_MULTI_TILE_ARCH_REC@@XZ
        128   7F 00002730 ?GetNumSamples@GmmResourceInfoCommon@GmmLib@@UEAAIXZ
        129   80 00145C30 ?GetOffset@GmmResourceInfoCommon@GmmLib@@UEAA?AW4GMM_STATUS_ENUM@@AEAUGMM_REQ_OFFSET_INFO_REC@@@Z
        130   81 0014A1B0 ?GetOffsetFor64KBTiles@GmmResourceInfoWin@GmmLib@@UEAA?AW4GMM_STATUS_ENUM@@AEAUGMM_REQ_OFFSET_INFO_REC@@@Z
        131   82 0016E6C0 ?GetOverrideGfxPartition@GmmClientContext@GmmLib@@AEAA?AU__GMM_GFX_PARTITIONING@@PEAU3@TGMM_ESCAPE_HANDLE_REC@@1TGMM_ESCAPE_FUNC_TYPE_REC@@@Z
        132   83 001476E0 ?GetPackedMipTailStartLod@GmmResourceInfoCommon@GmmLib@@UEAAIXZ
        133   84 001459F0 ?GetPaddedHeight@GmmResourceInfoCommon@GmmLib@@UEAAII@Z
        134   85 00145B00 ?GetPaddedPitch@GmmResourceInfoCommon@GmmLib@@UEAAII@Z
        135   86 001458D0 ?GetPaddedWidth@GmmResourceInfoCommon@GmmLib@@UEAAII@Z
        136   87 00002740 ?GetPlanarAuxOffset@GmmResourceInfoCommon@GmmLib@@UEAA_KIW4GMM_UNIFIED_AUX_TYPE@@@Z
        137   88 00002860 ?GetPlanarXOffset@GmmResourceInfoCommon@GmmLib@@UEAA_KW4GMM_YUV_PLANE_ENUM@@@Z
        138   89 00002870 ?GetPlanarYOffset@GmmResourceInfoCommon@GmmLib@@UEAA_KW4GMM_YUV_PLANE_ENUM@@@Z
        139   8A 0016CAB0 ?GetPlatformInfo@GmmClientContext@GmmLib@@UEAAAEAU__GMM_PLATFORM_RESOURCE_REC@@XZ
        140   8B 001452C0 ?GetPlatformInfo@GmmResourceInfoCommon@GmmLib@@MEAAAEBU__GMM_PLATFORM_RESOURCE_REC@@XZ
        141   8C 00002880 ?GetPrivateData@GmmResourceInfoCommon@GmmLib@@UEAAPEAXXZ
        142   8D 00145B50 ?GetQPitch@GmmResourceInfoCommon@GmmLib@@UEAAIXZ
        143   8E 00002890 ?GetQPitchInBytes@GmmResourceInfoCommon@GmmLib@@UEAA_KXZ
        144   8F 000028A0 ?GetQPitchPlanar@GmmResourceInfoCommon@GmmLib@@UEAAIW4GMM_YUV_PLANE_ENUM@@@Z
        145   90 000028E0 ?GetRefreshRate@GmmResourceInfoWin@GmmLib@@UEAA?AU_D3DDDI_RATIONAL@@XZ
        146   91 000028F0 ?GetRenderAuxPitchTiles@GmmResourceInfoCommon@GmmLib@@UEAAIXZ
        147   92 00002970 ?GetRenderPitch@GmmResourceInfoCommon@GmmLib@@UEAA_KXZ
        148   93 0014A3C0 ?GetRenderPitchIn64KBTiles@GmmResourceInfoWin@GmmLib@@UEAAIXZ
        149   94 00002980 ?GetRenderPitchTiles@GmmResourceInfoCommon@GmmLib@@UEAAIXZ
        150   95 00002A30 ?GetResFlags@GmmResourceInfoCommon@GmmLib@@UEAAAEAUGMM_RESOURCE_FLAG_REC@@XZ
        151   96 00002A40 ?GetResourceFormat@GmmResourceInfoCommon@GmmLib@@UEAA?AW4GMM_RESOURCE_FORMAT_ENUM@@XZ
        152   97 00147AE0 ?GetResourceFormatSurfaceState@GmmResourceInfoCommon@GmmLib@@UEAA?AW4GMM_SURFACESTATE_FORMAT_ENUM@@XZ
        153   98 00002A50 ?GetResourceType@GmmResourceInfoCommon@GmmLib@@UEAA?AW4GMM_RESOURCE_TYPE_ENUM@@XZ
        154   99 0014A0E0 ?GetRestrictions@GmmResourceInfoCommon@GmmLib@@UEAAXAEAU__GMM_BUFFER_TYPE_REC@@@Z
        155   9A 00002A60 ?GetRotateInfo@GmmResourceInfoCommon@GmmLib@@UEAAIXZ
        156   9B 0016F720 ?GetSLMaddressRange@GmmClientContext@GmmLib@@UEAA_KTGMM_ESCAPE_HANDLE_REC@@0_KTGMM_ESCAPE_FUNC_TYPE_REC@@@Z
        157   9C 00002A70 ?GetSamplePattern@GmmResourceInfoCommon@GmmLib@@UEAA?AW4GMM_MSAA_SAMPLE_PATTERN_REC@@XZ
        158   9D 00002A80 ?GetSetCpSurfTag@GmmResourceInfoCommon@GmmLib@@UEAAIEI@Z
        159   9E 0016E170 ?GetSetGfxPartitionProcessSingleton@GmmClientContext@GmmLib@@AEAAXTGMM_ESCAPE_HANDLE_REC@@0PEAU__GMM_GFX_PARTITIONING@@ETGMM_ESCAPE_FUNC_TYPE_REC@@@Z
        160   9F 00002A90 ?GetSetHardwareProtection@GmmResourceInfoCommon@GmmLib@@UEAAEEE@Z
        161   A0 00002A90 ?GetSetHardwareProtection@GmmResourceInfoWin@GmmLib@@UEAAEEE@Z
        162   A1 0016DEE0 ?GetSetProcessGfxPartition@GmmClientContext@GmmLib@@AEAAITGMM_ESCAPE_HANDLE_REC@@0PEAU__GMM_GFX_PARTITIONING@@ETGMM_ESCAPE_FUNC_TYPE_REC@@@Z
        163   A2 00002AC0 ?GetSize@GmmResourceInfoCommon@GmmLib@@UEAA_KW4GMM_SIZE_PARAM@@@Z
        164   A3 00002B90 ?GetSizeAllocation@GmmResourceInfoCommon@GmmLib@@UEAA_KXZ
        165   A4 00002BF0 ?GetSizeAuxSurface@GmmResourceInfoCommon@GmmLib@@UEAA_KW4GMM_UNIFIED_AUX_TYPE@@@Z
        166   A5 00002CD0 ?GetSizeMainSurface@GmmResourceInfoCommon@GmmLib@@UEBA_KXZ
        167   A6 00002CE0 ?GetSizeSurface@GmmResourceInfoCommon@GmmLib@@UEAA_KXZ
        168   A7 0016CAD0 ?GetSkuTable@GmmClientContext@GmmLib@@UEAAAEBU_SKU_FEATURE_TABLE@@XZ
        169   A8 00002D40 ?GetStdLayoutSize@GmmResourceInfoCommon@GmmLib@@UEAA_KXZ
        170   A9 00147A90 ?GetStdTilingModeExtSurfaceState@GmmResourceInfoCommon@GmmLib@@UEAAIXZ
        171   AA 0016CC10 ?GetSurfaceStateCompressionFormat@GmmClientContext@GmmLib@@UEAAEW4GMM_RESOURCE_FORMAT_ENUM@@@Z
        172   AB 0016CBD0 ?GetSurfaceStateFormat@GmmClientContext@GmmLib@@UEAA?AW4GMM_SURFACESTATE_FORMAT_ENUM@@W4GMM_RESOURCE_FORMAT_ENUM@@@Z
        173   AC 0016C950 ?GetSurfaceStateL1CachePolicy@GmmClientContext@GmmLib@@UEAAEW4GMM_RESOURCE_USAGE_TYPE_ENUM@@@Z
        174   AD 00002DC0 ?GetSystemMemPointer@GmmResourceInfoCommon@GmmLib@@UEAAPEAXE@Z
        175   AE 00002DF0 ?GetSystemMemSize@GmmResourceInfoCommon@GmmLib@@UEAA_KXZ
        176   AF 00166640 ?GetTRL3TableAddr@GmmPageTableMgr@GmmLib@@UEAA_KXZ
        177   B0 00002E00 ?GetTallBufferHeight@GmmResourceInfoCommon@GmmLib@@UEAAIXZ
        178   B1 00002E20 ?GetTextureLayout@GmmResourceInfoCommon@GmmLib@@UEAA?AW4GMM_TEXTURE_LAYOUT_REC@@XZ
        179   B2 00002E30 ?GetTileAddressMappingModeSurfaceState@GmmResourceInfoCommon@GmmLib@@UEAAIXZ
        180   B3 0016FE40 ?GetTileGfxAddress@GmmClientContext@GmmLib@@UEAA_KPEAVGmmResourceInfoWin@2@IIII@Z
        181   B4 00002E40 ?GetTileModeSurfaceState@GmmResourceInfoCommon@GmmLib@@IEAAIPEBUGMM_TEXTURE_INFO_REC@@@Z
        182   B5 00002EC0 ?GetTileModeSurfaceState@GmmResourceInfoCommon@GmmLib@@UEAAIXZ
        183   B6 00002ED0 ?GetTilePoolArray@GmmResourceInfoWin@GmmLib@@UEAAPEAXXZ
        184   B7 0016FE20 ?GetTileShape@GmmClientContext@GmmLib@@UEAA?AW4GMM_STATUS_ENUM@@PEAVGmmResourceInfoWin@2@PEAI11@Z
        185   B8 00002EE0 ?GetTileType@GmmResourceInfoCommon@GmmLib@@UEAA?AW4GMM_TILE_TYPE_ENUM@@XZ
        186   B9 00002F20 ?GetTiledModeDepthStencilState@GmmResourceInfoCommon@GmmLib@@UEAAIW4GMM_UNIFIED_AUX_TYPE@@@Z
        187   BA 00002FD0 ?GetTiledResourceGfxAddress@GmmResourceInfoWin@GmmLib@@UEAA_KXZ
        188   BB 00147600 ?GetTiledResourceMipPacking@GmmResourceInfoCommon@GmmLib@@UEAAXPEAI0@Z
        189   BC 00002FE0 ?GetTiledResourceModeSurfaceState@GmmResourceInfoCommon@GmmLib@@UEAAIXZ
        190   BD 0016F1C0 ?GetTrashPageGfxAddress@GmmClientContext@GmmLib@@UEAA_KTGMM_ESCAPE_HANDLE_REC@@0TGMM_ESCAPE_FUNC_TYPE_REC@@@Z
        191   BE 00003030 ?GetUnifiedAuxBitsPerPixel@GmmResourceInfoCommon@GmmLib@@UEAAIXZ
        192   BF 00003040 ?GetUnifiedAuxPitch@GmmResourceInfoCommon@GmmLib@@UEAA_KXZ
        193   C0 00003050 ?GetUnifiedAuxSurfaceOffset@GmmResourceInfoCommon@GmmLib@@UEAA_KW4GMM_UNIFIED_AUX_TYPE@@@Z
        194   C1 0016CA30 ?GetUseGlobalGtt@GmmClientContext@GmmLib@@UEAAEW4GMM_HW_COMMAND_STREAMER_ENUM@@W4GMM_HW_COMMAND_ENUM@@PEAT__D3DDDI_PATCHLOCATIONLIST_DRIVERID@@@Z
        195   C2 00003230 ?GetVAlign@GmmResourceInfoCommon@GmmLib@@UEAAIXZ
        196   C3 000032D0 ?GetVAlignSurfaceState@GmmResourceInfoCommon@GmmLib@@UEAAIXZ
        197   C4 000033B0 ?GetVidSourceId@GmmResourceInfoWin@GmmLib@@UEAAIXZ
        198   C5 000033C0 ?GmmGetTileMode@GmmResourceInfoCommon@GmmLib@@UEAA?AW4GMM_TILE_MODE_ENUM@@XZ
        199   C6 001678D0 ?GmmSetCsrHandle@GmmPageTableMgr@GmmLib@@UEAAXPEAX@Z
        200   C7 0016DAD0 ?GmmSetDeviceInfo@GmmClientContext@GmmLib@@UEAA?AW4GMM_STATUS_ENUM@@PEAU_GMM_DEVICE_INFO_REC@@@Z
        201   C8 00166680 ?InitContextAuxTableRegister@GmmPageTableMgr@GmmLib@@UEAA?AW4GMM_STATUS_ENUM@@PEAXW4_GMM_ENGINE_TYPE@@@Z
        202   C9 00166730 ?InitContextTRTableRegister@GmmPageTableMgr@GmmLib@@UEAA?AW4GMM_STATUS_ENUM@@PEAXW4_GMM_ENGINE_TYPE@@@Z
        203   CA 001665D0 ?InitGpuBBQueueCallbacks@GmmPageTableMgr@GmmLib@@UEAAXPEAUGMM_TRANSLATIONTABLE_CALLBACKS_REC@@@Z
        204   CB 00147460 ?Is64KBPageSuitable@GmmResourceInfoCommon@GmmLib@@UEAAEXZ
        205   CC 00147920 ?IsASTC@GmmResourceInfoCommon@GmmLib@@UEAAEXZ
        206   CD 00147910 ?IsArraySpacingSingleLod@GmmResourceInfoCommon@GmmLib@@UEAAEXZ
        207   CE 000033D0 ?IsColorSeparation@GmmResourceInfoCommon@GmmLib@@UEAAEXZ
        208   CF 0016CB80 ?IsCompressed@GmmClientContext@GmmLib@@UEAAEW4GMM_RESOURCE_FORMAT_ENUM@@@Z
        209   D0 000033E0 ?IsLockDiscardCompatible@GmmResourceInfoWin@GmmLib@@UEAAEXZ
        210   D1 00003400 ?IsMediaMemoryCompressed@GmmResourceInfoCommon@GmmLib@@UEAAEI@Z
        211   D2 00147790 ?IsMipRCCAligned@GmmResourceInfoCommon@GmmLib@@UEAA_NAEAE@Z
        212   D3 00003420 ?IsMsaaFormatDepthStencil@GmmResourceInfoCommon@GmmLib@@UEAAEXZ
        213   D4 0016CB60 ?IsP0xx@GmmClientContext@GmmLib@@UEAAEW4GMM_RESOURCE_FORMAT_ENUM@@@Z
        214   D5 0016CB50 ?IsPlanar@GmmClientContext@GmmLib@@UEAAEW4GMM_RESOURCE_FORMAT_ENUM@@@Z
        215   D6 0014A340 ?IsPredictedGlobalAliasingParticipant@GmmResourceInfoWin@GmmLib@@UEAAEXZ
        216   D7 0014A060 ?IsPresentableformat@GmmResourceInfoCommon@GmmLib@@MEAA_NXZ
        217   D8 00003440 ?IsSurfaceFaultable@GmmResourceInfoCommon@GmmLib@@UEAAEXZ
        218   D9 0014A3B0 ?IsSurfaceFaultable@GmmResourceInfoWin@GmmLib@@UEAAEXZ
        219   DA 00003450 ?IsSvm@GmmResourceInfoCommon@GmmLib@@UEAAEXZ
        220   DB 0016CB70 ?IsUVPacked@GmmClientContext@GmmLib@@UEAAEW4GMM_RESOURCE_FORMAT_ENUM@@@Z
        221   DC 0016CBC0 ?IsYUVPacked@GmmClientContext@GmmLib@@UEAAEW4GMM_RESOURCE_FORMAT_ENUM@@@Z
        222   DD 0014A7E0 ?KmdGetSetCpSurfTag@GmmResourceInfoWin@GmmLib@@UEAAITGMM_ESCAPE_HANDLE_REC@@0IEITGMM_ESCAPE_FUNC_TYPE_REC@@@Z
        223   DE 0014A5A0 ?KmdGetSetHardwareProtection@GmmResourceInfoWin@GmmLib@@UEAAETGMM_ESCAPE_HANDLE_REC@@0IEPEAETGMM_ESCAPE_FUNC_TYPE_REC@@@Z
        224   DF 0014A6F0 ?KmdSetPavpStoutOrIsolatedEncryptionForDisplay@GmmResourceInfoWin@GmmLib@@UEAAETGMM_ESCAPE_HANDLE_REC@@0IEITGMM_ESCAPE_FUNC_TYPE_REC@@@Z
        225   E0 00166980 ?MapTRGpuVirtualAddress@GmmPageTableMgr@GmmLib@@UEAAJPEAU_GMM_MAP_TR_GPUVIRTUALADDRESS@@E@Z
        226   E1 0016D3F0 ?MapTileInstancedGpuVirtualAddress@GmmClientContext@GmmLib@@UEAAJPEAU_GMM_MAP_GPUVA_TILE_INSTANCED_RESOURCE@@@Z
        227   E2 00003460 ?OverrideAllocationFlags@GmmResourceInfoCommon@GmmLib@@UEAAXAEAUGMM_RESOURCE_FLAG_REC@@@Z
        228   E3 00003470 ?OverrideArraySize@GmmResourceInfoCommon@GmmLib@@UEAAXI@Z
        229   E4 00003480 ?OverrideAuxTilePoolArray@GmmResourceInfoWin@GmmLib@@UEAAXPEAX@Z
        230   E5 00003490 ?OverrideAuxTilePoolArraySize@GmmResourceInfoWin@GmmLib@@UEAAXI@Z
        231   E6 000034A0 ?OverrideBaseAlignment@GmmResourceInfoCommon@GmmLib@@UEAAXI@Z
        232   E7 000034B0 ?OverrideBaseHeight@GmmResourceInfoCommon@GmmLib@@UEAAXI@Z
        233   E8 000034C0 ?OverrideBaseWidth@GmmResourceInfoCommon@GmmLib@@UEAAX_K@Z
        234   E9 000034D0 ?OverrideCachePolicyUsage@GmmResourceInfoCommon@GmmLib@@UEAAXW4GMM_RESOURCE_USAGE_TYPE_ENUM@@@Z
        235   EA 000034E0 ?OverrideDepth@GmmResourceInfoCommon@GmmLib@@UEAAXI@Z
        236   EB 0016EF30 ?OverrideGfxPartition@GmmClientContext@GmmLib@@UEAA?AU__GMM_GFX_PARTITIONING@@PEAU3@TGMM_ESCAPE_HANDLE_REC@@1TGMM_ESCAPE_FUNC_TYPE_REC@@@Z
        237   EC 0016EED0 ?OverrideGfxPartition@GmmClientContext@GmmLib@@UEAA?AU__GMM_GFX_PARTITIONING@@XZ
        238   ED 000034F0 ?OverrideGmmLibContext@GmmResourceInfoCommon@GmmLib@@UEAAXPEBVContext@2@@Z
        239   EE 00003500 ?OverrideHAlign@GmmResourceInfoCommon@GmmLib@@UEAAXI@Z
        240   EF 00003510 ?OverrideMaxLod@GmmResourceInfoCommon@GmmLib@@UEAAXI@Z
        241   F0 00003520 ?OverridePitch@GmmResourceInfoCommon@GmmLib@@UEAAX_K@Z
        242   F1 00003530 ?OverridePlanarXOffset@GmmResourceInfoCommon@GmmLib@@UEAAXW4GMM_YUV_PLANE_ENUM@@_K@Z
        243   F2 00003540 ?OverridePlanarYOffset@GmmResourceInfoCommon@GmmLib@@UEAAXW4GMM_YUV_PLANE_ENUM@@_K@Z
        244   F3 00003550 ?OverrideSize@GmmResourceInfoCommon@GmmLib@@UEAAX_K@Z
        245   F4 00003560 ?OverrideSurfaceFormat@GmmResourceInfoCommon@GmmLib@@UEAAXW4GMM_RESOURCE_FORMAT_ENUM@@@Z
        246   F5 00003570 ?OverrideSurfaceType@GmmResourceInfoCommon@GmmLib@@UEAAXW4GMM_RESOURCE_TYPE_ENUM@@@Z
        247   F6 00003580 ?OverrideSvmGfxAddress@GmmResourceInfoCommon@GmmLib@@UEAAX_K@Z
        248   F7 00003590 ?OverrideTextureInfo@GmmResourceInfoWin@GmmLib@@UEAAXW4GMM_CLIENT_ENUM@@AEBUGMM_TEXTURE_INFO_REC@@@Z
        249   F8 00003610 ?OverrideTileMode@GmmResourceInfoCommon@GmmLib@@UEAAXW4GMM_TILE_MODE_ENUM@@@Z
        250   F9 00003620 ?OverrideTiledResourceGfxAddress@GmmResourceInfoWin@GmmLib@@UEAAX_K@Z
        251   FA 00003630 ?OverrideUnifiedAuxPitch@GmmResourceInfoCommon@GmmLib@@UEAAX_K@Z
        252   FB 00003640 ?OverrideUnifiedAuxTileMode@GmmResourceInfoCommon@GmmLib@@UEAAXW4GMM_TILE_MODE_ENUM@@@Z
        253   FC 0016FB30 ?PigmsFreeGpuVa@GmmClientContext@GmmLib@@UEAAETGMM_ESCAPE_HANDLE_REC@@0_K1TGMM_ESCAPE_FUNC_TYPE_REC@@@Z
        254   FD 0016FB20 ?PigmsMapGpuVA@GmmClientContext@GmmLib@@UEAAETGMM_ESCAPE_HANDLE_REC@@0_KIPEAVGmmResourceInfoWin@2@TGMM_ESCAPE_FUNC_TYPE_REC@@@Z
        255   FE 0016FB10 ?PigmsReserveGpuVA@GmmClientContext@GmmLib@@UEAA_KTGMM_ESCAPE_HANDLE_REC@@0_KTGMM_ESCAPE_FUNC_TYPE_REC@@@Z
        256   FF 00145120 ?ReAdjustPlaneProperties@GmmResourceInfoCommon@GmmLib@@MEAA_N_N@Z
        257  100 00144DD0 ?RedescribePlanes@GmmResourceInfoCommon@GmmLib@@MEAA_NXZ
        258  101 0016F610 ?ResDestroySvmAllocation@GmmClientContext@GmmLib@@UEAAETGMM_ESCAPE_HANDLE_REC@@0ITGMM_ESCAPE_FUNC_TYPE_REC@@@Z
        259  102 0016CE70 ?ResMemcpy@GmmClientContext@GmmLib@@UEAAXPEAX0@Z
        260  103 0016FB40 ?ResUpdateAfterSharedOpen@GmmClientContext@GmmLib@@UEAA?AW4GMM_STATUS_ENUM@@PEAX0IPEAVGmmResourceInfoWin@2@TGMM_ESCAPE_FUNC_TYPE_REC@@@Z
        261  104 0016E350 ?ReserveSVMGPUVA@GmmClientContext@GmmLib@@AEAA?AW4GMM_STATUS_ENUM@@PEAU_GMM_DEVICE_CALLBACKS_INT@@PEAU__GMM_GFX_PARTITIONING@@@Z
        262  105 001668E0 ?ReserveTRGpuVirtualAddress@GmmPageTableMgr@GmmLib@@UEAAJPEAUGMM_UMD_SYNCCONTEXT_REC@@PEAUD3DDDI_RESERVEGPUVIRTUALADDRESS@@E@Z
        263  106 00003650 ?SetClientType@GmmResourceInfoCommon@GmmLib@@UEAAXW4GMM_CLIENT_ENUM@@@Z
        264  107 00003660 ?SetGmmClientContext@GmmResourceInfoCommon@GmmLib@@UEAAXPEAVGmmClientContext@2@@Z
        265  108 000034F0 ?SetGmmLibContext@GmmResourceInfoCommon@GmmLib@@UEAAXPEAX@Z
        266  109 000036A0 ?SetMmcHint@GmmResourceInfoCommon@GmmLib@@UEAAXW4GMM_RESOURCE_MMC_HINT_REC@@I@Z
        267  10A 000036B0 ?SetMmcMode@GmmResourceInfoCommon@GmmLib@@UEAAXW4GMM_RESOURCE_MMC_INFO_REC@@I@Z
        268  10B 000036D0 ?SetPrivateData@GmmResourceInfoCommon@GmmLib@@UEAAXPEAX@Z
        269  10C 000036E0 ?TranslateColorSeparationX@GmmResourceInfoCommon@GmmLib@@UEAAII@Z
        270  10D 0016F460 ?UmDestroypHeap@GmmClientContext@GmmLib@@UEAA?AW4GMM_STATUS_ENUM@@TGMM_ESCAPE_HANDLE_REC@@0PEAPEAUGMM_HEAP_REC@@TGMM_ESCAPE_FUNC_TYPE_REC@@@Z
        271  10E 0016F2B0 ?UmSetupHeap@GmmClientContext@GmmLib@@UEAAPEAUGMM_HEAP_REC@@TGMM_ESCAPE_HANDLE_REC@@0_K1ITGMM_ESCAPE_FUNC_TYPE_REC@@@Z
        272  10F 00166B50 ?UpdateAuxTable@GmmPageTableMgr@GmmLib@@UEAA?AW4GMM_STATUS_ENUM@@PEBU__GMM_DDI_UPDATEAUXTABLE@@@Z
        273  110 0014A450 ?UpdateCacheability@GmmResourceInfoWin@GmmLib@@UEAAETGMM_ESCAPE_HANDLE_REC@@0IAEAUGMM_GPU_CACHE_SETTINGS_REC@@TGMM_ESCAPE_FUNC_TYPE_REC@@@Z
        274  111 0016FCC0 ?UpdateSparseResourceOpaqueMapping@GmmClientContext@GmmLib@@UEAA?AW4GMM_STATUS_ENUM@@TGMM_ESCAPE_HANDLE_REC@@0PEAUGMM_UMD_SYNCCONTEXT_REC@@PEAUGMM_TRANSLATIONTABLE_CALLBACKS_REC@@TGMM_ESCAPE_FUNC_TYPE_REC@@EIPEAUGMM_UPDATE_SPARSE_RESOURCE_OPAQUE_MAPPINGS_REC@@@Z
        275  112 00166A10 ?UpdateTRGpuVirtualAddress@GmmPageTableMgr@GmmLib@@UEAAJPEAPEAUGMM_UMD_SYNCCONTEXT_REC@@PEBU_GMM_UPADTE_TR_GPUVIRTUALADDRESS_INT@@E@Z
        276  113 0016FBF0 ?UpdateTiledResourceMapping@GmmClientContext@GmmLib@@UEAA?AW4GMM_STATUS_ENUM@@TGMM_ESCAPE_HANDLE_REC@@0UGMM_UPDATE_TILE_MAPPINGS_REC_INT@@EPEAUGMM_UMD_SYNCCONTEXT_REC@@PEAUGMM_TRANSLATIONTABLE_CALLBACKS_REC@@TGMM_ESCAPE_FUNC_TYPE_REC@@PEAU_GMM_DEVICE_CALLBACKS_INT@@IE@Z
        277  114 00148650 ?ValidateParams@GmmResourceInfoCommon@GmmLib@@UEAAEXZ
        278  115 00167C50 ?__AllocateNodePool@GmmPageTableMgr@GmmLib@@AEAAPEAVGmmPageTablePool@2@IW4POOL_TYPE_REC@2@@Z
        279  116 00167680 ?__GetFreePoolNode@GmmPageTableMgr@GmmLib@@UEAAPEAVGmmPageTablePool@2@PEAIW4POOL_TYPE_REC@2@@Z
        280  117 0016E0E0 ?__GetSetSharedHeapObjectProcessSingleton@GmmClientContext@GmmLib@@AEAAPEAXTGMM_ESCAPE_HANDLE_REC@@0TGMM_ESCAPE_FUNC_TYPE_REC@@@Z
        281  118 0016DCB0 ?__GetSharedHeapObject@GmmClientContext@GmmLib@@AEAAPEAXTGMM_ESCAPE_HANDLE_REC@@0TGMM_ESCAPE_FUNC_TYPE_REC@@@Z
        282  119 00167EF0 ?__NotifyAuxTChange@GmmPageTableMgr@GmmLib@@AEAAX_KAEA_K1AEAE@Z
        283  11A 00167340 ?__ReleaseUnusedPool@GmmPageTableMgr@GmmLib@@UEAAXPEAUGMM_UMD_SYNCCONTEXT_REC@@@Z
        284  11B 0016DDB0 ?__SetSharedHeapObject@GmmClientContext@GmmLib@@AEAAITGMM_ESCAPE_HANDLE_REC@@0PEAPEAXTGMM_ESCAPE_FUNC_TYPE_REC@@@Z
        285  11C 001700F0 GmmDestroy
        286  11D 00170050 InitializeGmm
        287  11E 00170010 OpenGmm

  Summary

        5000 .data
        3000 .pdata
       17000 .rdata
        1000 .reloc
        1000 .rsrc
      17D000 .text
        1000 _RDATA
